target datalayout = "e-m:e-p270:32:32-p271:32:32-p272:64:64-i64:64-i128:128-f80:128-n8:16:32:64-S128"
target triple = "x86_64-pc-linux-gnu"

%struct.tsi_peer_property = type { ptr, %struct.anon }
%struct.anon = type { ptr, i64 }

; Function Attrs: mustprogress nounwind uwtable
define void @_Z22tsi_init_peer_propertyv(ptr dead_on_unwind noalias writable sret(%struct.tsi_peer_property) align 8 %0) #4 {
  call void @llvm.memset.p0.i64(ptr align 8 %0, i8 0, i64 24, i1 false)
  ret void
}

; Function Attrs: mustprogress uwtable
define noundef i32 @_Z44tsi_construct_allocated_string_peer_propertyPKcmP17tsi_peer_property(ptr noundef %0, i64 noundef %1, ptr noundef %2) #5 {
  %4 = alloca ptr, align 8
  %5 = alloca i64, align 8
  %6 = alloca ptr, align 8
  %7 = alloca %struct.tsi_peer_property, align 8
  store ptr %0, ptr %4, align 8, !tbaa !12
  store i64 %1, ptr %5, align 8, !tbaa !45
  store ptr %2, ptr %6, align 8, !tbaa !69
  call void @llvm.lifetime.start.p0(i64 24, ptr %7) #3
  call void @_Z22tsi_init_peer_propertyv(ptr dead_on_unwind writable sret(%struct.tsi_peer_property) align 8 %7)
  %8 = load ptr, ptr %6, align 8, !tbaa !69
  call void @llvm.memcpy.p0.p0.i64(ptr align 8 %8, ptr align 8 %7, i64 24, i1 false), !tbaa.struct !75
  call void @llvm.lifetime.end.p0(i64 24, ptr %7) #3
  %9 = load ptr, ptr %4, align 8, !tbaa !12
  %10 = icmp ne ptr %9, null
  br i1 %10, label %11, label %16

11:                                               ; preds = %3
  %12 = load ptr, ptr %4, align 8, !tbaa !12
  %13 = call ptr @gpr_strdup(ptr noundef %12)
  %14 = load ptr, ptr %6, align 8, !tbaa !69
  %15 = getelementptr inbounds nuw %struct.tsi_peer_property, ptr %14, i32 0, i32 0
  store ptr %13, ptr %15, align 8, !tbaa !71
  br label %16

16:                                               ; preds = %11, %3
  %17 = load i64, ptr %5, align 8, !tbaa !45
  %18 = icmp ugt i64 %17, 0
  br i1 %18, label %19, label %29

19:                                               ; preds = %16
  %20 = load i64, ptr %5, align 8, !tbaa !45
  %21 = call ptr @gpr_zalloc(i64 noundef %20)
  %22 = load ptr, ptr %6, align 8, !tbaa !69
  %23 = getelementptr inbounds nuw %struct.tsi_peer_property, ptr %22, i32 0, i32 1
  %24 = getelementptr inbounds nuw %struct.anon, ptr %23, i32 0, i32 0
  store ptr %21, ptr %24, align 8, !tbaa !74
  %25 = load i64, ptr %5, align 8, !tbaa !45
  %26 = load ptr, ptr %6, align 8, !tbaa !69
  %27 = getelementptr inbounds nuw %struct.tsi_peer_property, ptr %26, i32 0, i32 1
  %28 = getelementptr inbounds nuw %struct.anon, ptr %27, i32 0, i32 1
  store i64 %25, ptr %28, align 8, !tbaa !81
  br label %29

29:                                               ; preds = %19, %16
  ret i32 0
}

; Function Attrs: mustprogress uwtable
define noundef i32 @_Z34tsi_construct_string_peer_propertyPKcS0_mP17tsi_peer_property(ptr noundef %0, ptr noundef %1, i64 noundef %2, ptr noundef %3) #5 {
  %5 = alloca i32, align 4
  %6 = alloca ptr, align 8
  %7 = alloca ptr, align 8
  %8 = alloca i64, align 8
  %9 = alloca ptr, align 8
  %10 = alloca i32, align 4
  %11 = alloca i32, align 4
  store ptr %0, ptr %6, align 8, !tbaa !12
  store ptr %1, ptr %7, align 8, !tbaa !12
  store i64 %2, ptr %8, align 8, !tbaa !45
  store ptr %3, ptr %9, align 8, !tbaa !69
  call void @llvm.lifetime.start.p0(i64 4, ptr %10) #3
  %12 = load ptr, ptr %6, align 8, !tbaa !12
  %13 = load i64, ptr %8, align 8, !tbaa !45
  %14 = load ptr, ptr %9, align 8, !tbaa !69
  %15 = call noundef i32 @_Z44tsi_construct_allocated_string_peer_propertyPKcmP17tsi_peer_property(ptr noundef %12, i64 noundef %13, ptr noundef %14)
  store i32 %15, ptr %10, align 4, !tbaa !3
  %16 = load i32, ptr %10, align 4, !tbaa !3
  %17 = icmp ne i32 %16, 0
  br i1 %17, label %18, label %20

18:                                               ; preds = %4
  %19 = load i32, ptr %10, align 4, !tbaa !3
  store i32 %19, ptr %5, align 4
  store i32 1, ptr %11, align 4
  br label %31

20:                                               ; preds = %4
  %21 = load i64, ptr %8, align 8, !tbaa !45
  %22 = icmp ugt i64 %21, 0
  br i1 %22, label %23, label %30

23:                                               ; preds = %20
  %24 = load ptr, ptr %9, align 8, !tbaa !69
  %25 = getelementptr inbounds nuw %struct.tsi_peer_property, ptr %24, i32 0, i32 1
  %26 = getelementptr inbounds nuw %struct.anon, ptr %25, i32 0, i32 0
  %27 = load ptr, ptr %26, align 8, !tbaa !74
  %28 = load ptr, ptr %7, align 8, !tbaa !12
  %29 = load i64, ptr %8, align 8, !tbaa !45
  call void @llvm.memcpy.p0.p0.i64(ptr align 1 %27, ptr align 1 %28, i64 %29, i1 false)
  br label %30

30:                                               ; preds = %23, %20
  store i32 0, ptr %5, align 4
  store i32 1, ptr %11, align 4
  br label %31

31:                                               ; preds = %30, %18
  call void @llvm.lifetime.end.p0(i64 4, ptr %10) #3
  %32 = load i32, ptr %5, align 4
  ret i32 %32
}

; Function Attrs: mustprogress uwtable
define noundef i32 @_Z47tsi_construct_string_peer_property_from_cstringPKcS0_P17tsi_peer_property(ptr noundef %0, ptr noundef %1, ptr noundef %2) #5 {
  %4 = alloca ptr, align 8
  %5 = alloca ptr, align 8
  %6 = alloca ptr, align 8
  store ptr %0, ptr %4, align 8, !tbaa !12
  store ptr %1, ptr %5, align 8, !tbaa !12
  store ptr %2, ptr %6, align 8, !tbaa !69
  %7 = load ptr, ptr %4, align 8, !tbaa !12
  %8 = load ptr, ptr %5, align 8, !tbaa !12
  %9 = load ptr, ptr %5, align 8, !tbaa !12
  %10 = call i64 @strlen(ptr noundef %9) #10
  %11 = load ptr, ptr %6, align 8, !tbaa !69
  %12 = call noundef i32 @_Z34tsi_construct_string_peer_propertyPKcS0_mP17tsi_peer_property(ptr noundef %7, ptr noundef %8, i64 noundef %10, ptr noundef %11)
  ret i32 %12
}