; Function Attrs: mustprogress uwtable
define noundef i32 @_Z47tsi_construct_string_peer_property_from_cstringPKcS0_P17tsi_peer_property(ptr noundef %0, ptr noundef readonly captures(none) %1, ptr noundef writeonly captures(none) initializes((0, 24)) %2) local_unnamed_addr #4 {
  %4 = tail call i64 @strlen(ptr noundef nonnull dereferenceable(1) %1) #11
  tail call void @llvm.memset.p0.i64(ptr noundef nonnull align 8 dereferenceable(24) %2, i8 0, i64 24, i1 false)
  %.not.i.i = icmp eq ptr %0, null
  br i1 %.not.i.i, label %7, label %5

5:                                                ; preds = %3
  %6 = tail call ptr @gpr_strdup(ptr noundef nonnull %0)
  store ptr %6, ptr %2, align 8, !tbaa !46
  br label %7

7:                                                ; preds = %5, %3
  %.not9.i.i = icmp eq i64 %4, 0
  br i1 %.not9.i.i, label %_Z34tsi_construct_string_peer_propertyPKcS0_mP17tsi_peer_property.exit, label %8

8:                                                ; preds = %7
  %9 = tail call ptr @gpr_zalloc(i64 noundef %4)
  %10 = getelementptr inbounds nuw i8, ptr %2, i64 8
  store ptr %9, ptr %10, align 8, !tbaa !49
  %11 = getelementptr inbounds nuw i8, ptr %2, i64 16
  store i64 %4, ptr %11, align 8, !tbaa !56
  tail call void @llvm.memcpy.p0.p0.i64(ptr align 1 %9, ptr nonnull readonly align 1 %1, i64 %4, i1 false)
  br label %_Z34tsi_construct_string_peer_propertyPKcS0_mP17tsi_peer_property.exit

_Z34tsi_construct_string_peer_propertyPKcS0_mP17tsi_peer_property.exit: ; preds = %7, %8
  ret i32 0
}